target datalayout = "e-m:e-p270:32:32-p271:32:32-p272:64:64-i64:64-i128:128-f80:128-n8:16:32:64-S128"
target triple = "x86_64-pc-linux-gnu"

; Function Attrs: mustprogress nounwind uwtable
define void @_Z18set_grid_alignmentPii(ptr noundef %0, i32 noundef %1) #2 {
  %3 = alloca ptr, align 8
  %4 = alloca i32, align 4
  store ptr %0, ptr %3, align 8, !tbaa !205
  store i32 %1, ptr %4, align 4, !tbaa !9
  %5 = load i32, ptr %4, align 4, !tbaa !9
  %6 = icmp eq i32 %5, 5
  br i1 %6, label %7, label %13

7:                                                ; preds = %2
  %8 = load ptr, ptr %3, align 8, !tbaa !205
  %9 = load i32, ptr %8, align 4, !tbaa !9
  %10 = add nsw i32 %9, 3
  %11 = and i32 %10, -4
  %12 = load ptr, ptr %3, align 8, !tbaa !205
  store i32 %11, ptr %12, align 4, !tbaa !9
  br label %13

13:                                               ; preds = %7, %2
  ret void
}