; Function Attrs: mustprogress nofree norecurse nosync nounwind willreturn memory(argmem: readwrite) uwtable
define void @_Z18set_grid_alignmentPii(ptr noundef captures(none) %0, i32 noundef %1) local_unnamed_addr #9 {
  %3 = icmp eq i32 %1, 5
  br i1 %3, label %4, label %8

4:                                                ; preds = %2
  %5 = load i32, ptr %0, align 4, !tbaa !11
  %6 = add nsw i32 %5, 3
  %7 = and i32 %6, -4
  store i32 %7, ptr %0, align 4, !tbaa !11
  br label %8

8:                                                ; preds = %4, %2
  ret void
}